target datalayout = "e-m:e-p270:32:32-p271:32:32-p272:64:64-i64:64-i128:128-f80:128-n8:16:32:64-S128"
target triple = "x86_64-pc-linux-gnu"

%struct.epan_column_info = type { ptr, i32, ptr, ptr, ptr, %struct.col_expr_t, i32, ptr }
%struct.col_expr_t = type { ptr, ptr }
%struct.col_item_t = type { i32, ptr, ptr, ptr, i32, ptr, ptr, ptr, ptr, i32, i32, i32 }

; Function Attrs: nounwind uwtable
define i32 @col_has_time_fmt(ptr noundef %0, i32 noundef %1) #0 {
  %3 = alloca ptr, align 8
  %4 = alloca i32, align 4
  %5 = alloca ptr, align 8
  store ptr %0, ptr %3, align 8
  store i32 %1, ptr %4, align 4
  %6 = load ptr, ptr %3, align 8
  %7 = getelementptr inbounds %struct.epan_column_info, ptr %6, i32 0, i32 2
  %8 = load ptr, ptr %7, align 8
  %9 = load i32, ptr %4, align 4
  %10 = sext i32 %9 to i64
  %11 = getelementptr %struct.col_item_t, ptr %8, i64 %10
  store ptr %11, ptr %5, align 8
  %12 = load ptr, ptr %5, align 8
  %13 = getelementptr inbounds %struct.col_item_t, ptr %12, i32 0, i32 1
  %14 = load ptr, ptr %13, align 8
  %15 = getelementptr i32, ptr %14, i64 45
  %16 = load i32, ptr %15, align 4
  %17 = icmp ne i32 %16, 0
  br i1 %17, label %81, label %18

18:                                               ; preds = %2
  %19 = load ptr, ptr %5, align 8
  %20 = getelementptr inbounds %struct.col_item_t, ptr %19, i32 0, i32 1
  %21 = load ptr, ptr %20, align 8
  %22 = getelementptr i32, ptr %21, i64 2
  %23 = load i32, ptr %22, align 4
  %24 = icmp ne i32 %23, 0
  br i1 %24, label %81, label %25

25:                                               ; preds = %18
  %26 = load ptr, ptr %5, align 8
  %27 = getelementptr inbounds %struct.col_item_t, ptr %26, i32 0, i32 1
  %28 = load ptr, ptr %27, align 8
  %29 = getelementptr i32, ptr %28, i64 0
  %30 = load i32, ptr %29, align 4
  %31 = icmp ne i32 %30, 0
  br i1 %31, label %81, label %32

32:                                               ; preds = %25
  %33 = load ptr, ptr %5, align 8
  %34 = getelementptr inbounds %struct.col_item_t, ptr %33, i32 0, i32 1
  %35 = load ptr, ptr %34, align 8
  %36 = getelementptr i32, ptr %35, i64 1
  %37 = load i32, ptr %36, align 4
  %38 = icmp ne i32 %37, 0
  br i1 %38, label %81, label %39

39:                                               ; preds = %32
  %40 = load ptr, ptr %5, align 8
  %41 = getelementptr inbounds %struct.col_item_t, ptr %40, i32 0, i32 1
  %42 = load ptr, ptr %41, align 8
  %43 = getelementptr i32, ptr %42, i64 44
  %44 = load i32, ptr %43, align 4
  %45 = icmp ne i32 %44, 0
  br i1 %45, label %81, label %46

46:                                               ; preds = %39
  %47 = load ptr, ptr %5, align 8
  %48 = getelementptr inbounds %struct.col_item_t, ptr %47, i32 0, i32 1
  %49 = load ptr, ptr %48, align 8
  %50 = getelementptr i32, ptr %49, i64 42
  %51 = load i32, ptr %50, align 4
  %52 = icmp ne i32 %51, 0
  br i1 %52, label %81, label %53

53:                                               ; preds = %46
  %54 = load ptr, ptr %5, align 8
  %55 = getelementptr inbounds %struct.col_item_t, ptr %54, i32 0, i32 1
  %56 = load ptr, ptr %55, align 8
  %57 = getelementptr i32, ptr %56, i64 43
  %58 = load i32, ptr %57, align 4
  %59 = icmp ne i32 %58, 0
  br i1 %59, label %81, label %60

60:                                               ; preds = %53
  %61 = load ptr, ptr %5, align 8
  %62 = getelementptr inbounds %struct.col_item_t, ptr %61, i32 0, i32 1
  %63 = load ptr, ptr %62, align 8
  %64 = getelementptr i32, ptr %63, i64 35
  %65 = load i32, ptr %64, align 4
  %66 = icmp ne i32 %65, 0
  br i1 %66, label %81, label %67

67:                                               ; preds = %60
  %68 = load ptr, ptr %5, align 8
  %69 = getelementptr inbounds %struct.col_item_t, ptr %68, i32 0, i32 1
  %70 = load ptr, ptr %69, align 8
  %71 = getelementptr i32, ptr %70, i64 5
  %72 = load i32, ptr %71, align 4
  %73 = icmp ne i32 %72, 0
  br i1 %73, label %81, label %74

74:                                               ; preds = %67
  %75 = load ptr, ptr %5, align 8
  %76 = getelementptr inbounds %struct.col_item_t, ptr %75, i32 0, i32 1
  %77 = load ptr, ptr %76, align 8
  %78 = getelementptr i32, ptr %77, i64 6
  %79 = load i32, ptr %78, align 4
  %80 = icmp ne i32 %79, 0
  br label %81

81:                                               ; preds = %74, %67, %60, %53, %46, %39, %32, %25, %18, %2
  %82 = phi i1 [ true, %67 ], [ true, %60 ], [ true, %53 ], [ true, %46 ], [ true, %39 ], [ true, %32 ], [ true, %25 ], [ true, %18 ], [ true, %2 ], [ %80, %74 ]
  %83 = zext i1 %82 to i32
  ret i32 %83
}