; Function Attrs: mustprogress nofree norecurse nosync nounwind willreturn memory(read, inaccessiblemem: none) uwtable
define range(i32 0, 2) i32 @col_has_time_fmt(ptr noundef readonly captures(none) %0, i32 noundef %1) local_unnamed_addr #8 {
  %3 = getelementptr inbounds nuw i8, ptr %0, i64 16
  %4 = load ptr, ptr %3, align 8
  %5 = sext i32 %1 to i64
  %6 = getelementptr %struct.col_item_t, ptr %4, i64 %5, i32 1
  %7 = load ptr, ptr %6, align 8
  %8 = getelementptr i8, ptr %7, i64 180
  %9 = load i32, ptr %8, align 4
  %.not = icmp eq i32 %9, 0
  br i1 %.not, label %10, label %38

10:                                               ; preds = %2
  %11 = getelementptr i8, ptr %7, i64 8
  %12 = load i32, ptr %11, align 4
  %.not11 = icmp eq i32 %12, 0
  br i1 %.not11, label %13, label %38

13:                                               ; preds = %10
  %14 = load i32, ptr %7, align 4
  %.not12 = icmp eq i32 %14, 0
  br i1 %.not12, label %15, label %38

15:                                               ; preds = %13
  %16 = getelementptr i8, ptr %7, i64 4
  %17 = load i32, ptr %16, align 4
  %.not13 = icmp eq i32 %17, 0
  br i1 %.not13, label %18, label %38

18:                                               ; preds = %15
  %19 = getelementptr i8, ptr %7, i64 176
  %20 = load i32, ptr %19, align 4
  %.not14 = icmp eq i32 %20, 0
  br i1 %.not14, label %21, label %38

21:                                               ; preds = %18
  %22 = getelementptr i8, ptr %7, i64 168
  %23 = load i32, ptr %22, align 4
  %.not15 = icmp eq i32 %23, 0
  br i1 %.not15, label %24, label %38

24:                                               ; preds = %21
  %25 = getelementptr i8, ptr %7, i64 172
  %26 = load i32, ptr %25, align 4
  %.not16 = icmp eq i32 %26, 0
  br i1 %.not16, label %27, label %38

27:                                               ; preds = %24
  %28 = getelementptr i8, ptr %7, i64 140
  %29 = load i32, ptr %28, align 4
  %.not17 = icmp eq i32 %29, 0
  br i1 %.not17, label %30, label %38

30:                                               ; preds = %27
  %31 = getelementptr i8, ptr %7, i64 20
  %32 = load i32, ptr %31, align 4
  %.not18 = icmp eq i32 %32, 0
  br i1 %.not18, label %33, label %38

33:                                               ; preds = %30
  %34 = getelementptr i8, ptr %7, i64 24
  %35 = load i32, ptr %34, align 4
  %36 = icmp ne i32 %35, 0
  %37 = zext i1 %36 to i32
  br label %38

38:                                               ; preds = %33, %30, %27, %24, %21, %18, %15, %13, %10, %2
  %39 = phi i32 [ 1, %30 ], [ 1, %27 ], [ 1, %24 ], [ 1, %21 ], [ 1, %18 ], [ 1, %15 ], [ 1, %13 ], [ 1, %10 ], [ 1, %2 ], [ %37, %33 ]
  ret i32 %39
}